; Function Attrs: nounwind uwtable
define void @Wlc_NtkPrintObjects(ptr noundef readonly captures(none) %0) local_unnamed_addr #3 {
  %2 = getelementptr i8, ptr %0, i64 648
  %.val67 = load i32, ptr %2, align 8
  %3 = icmp sgt i32 %.val67, 1
  br i1 %3, label %.lr.ph, label %.critedge

.lr.ph:                                           ; preds = %1
  %4 = getelementptr i8, ptr %0, i64 640
  br label %5

5:                                                ; preds = %.lr.ph, %5
  %indvars.iv = phi i64 [ 1, %.lr.ph ], [ %indvars.iv.next, %5 ]
  %.val = load ptr, ptr %4, align 8
  %6 = getelementptr inbounds nuw %struct.Wlc_Obj_t_, ptr %.val, i64 %indvars.iv
  tail call void @Wlc_NtkPrintNode(ptr noundef nonnull %0, ptr noundef nonnull %6)
  %indvars.iv.next = add nuw nsw i64 %indvars.iv, 1
  %.val6 = load i32, ptr %2, align 8
  %7 = sext i32 %.val6 to i64
  %8 = icmp slt i64 %indvars.iv.next, %7
  br i1 %8, label %5, label %.critedge, !llvm.loop !46

.critedge:                                        ; preds = %5, %1
  ret void
}